(dp1
V2012/01/03/03-archiv.html
p2
Varchiv.
p3
sV2012/02/24/01-bilder.html
p4
Vbilder.
p5
sV2010/10/31/01-design.html
p6
Vdesign.
p7
sV2010/09/22/01-erster_eintrag.html
p8
Vneu.
p9
sV2010/09/22/02-bild_test.html
p10
Vbildtest.
p11
sV2012/01/25/01-serverausfall.html
p12
Vserverausfall.
p13
sV2012/04/10/02-test.html
p14
Vtest.
p15
s.