(dp1
V2010/10/31/01-design.html
p2
Vdesign.
p3
sV2010/09/22/01-erster_eintrag.html
p4
Vneu.
p5
sV2012/01/03/03-archiv.html
p6
Varchiv.
p7
sV2012/01/25/01-serverausfall.html
p8
Vserverausfall.
p9
sV2010/09/22/02-bild_test.html
p10
Vbildtest.
p11
s.