(dp1
V2012/01/03/03-archiv.html
p2
Varchiv.
p3
sV2012/02/24/01-bilder.html
p4
Vbilder.
p5
sV2012/06/27/02-addendum2.html
p6
Vaddendum2.
p7
sV2012/06/26/01-wow.html
p8
Vwow.
p9
sV2010/10/31/01-design.html
p10
Vdesign.
p11
sV2010/09/22/01-erster_eintrag.html
p12
Vneu.
p13
sV2010/09/22/02-bild_test.html
p14
Vbildtest.
p15
sV2012/06/27/01-addendum.html
p16
Vaddendum.
p17
sV2012/01/25/01-serverausfall.html
p18
Vserverausfall.
p19
sV2012/04/10/02-test.html
p20
Vtest.
p21
s.