(dp1
V2012/01/03/03-archiv.html
p2
Varchiv.
p3
sV2012/02/24/01-bilder.html
p4
Vbilder.
p5
sV2012/06/26/01-wow.html
p6
Vwow.
p7
sV2010/10/31/01-design.html
p8
Vdesign.
p9
sV2010/09/22/01-erster_eintrag.html
p10
Vneu.
p11
sV2010/09/22/02-bild_test.html
p12
Vbildtest.
p13
sV2012/01/25/01-serverausfall.html
p14
Vserverausfall.
p15
sV2012/04/10/02-test.html
p16
Vtest.
p17
s.