(dp1
V2010/10/31/01-design.html
p2
Vdesign.
p3
sV2012/01/03/03-archiv.html
p4
Varchiv.
p5
sV2012/01/25/01-serverausfall.html
p6
Vserverausfall.
p7
sV2010/09/22/02-bild_test.html
p8
Vbildtest.
p9
sV2010/09/22/01-erster_eintrag.html
p10
Vneu.
p11
s.