(dp1
V2010/09/23/01-doktoren.html
p2
Vdoktoren.
p3
sV2010/11/02/02-bobbycar1.html
p4
Vbobbycar1.
p5
sV2010/11/04/01-bobbycar2.html
p6
Vbobbycar2.
p7
sV2010/11/10/01-puppentheater.html
p8
Vpuppentheater.
p9
s.