(dp1
V2010/09/23/01-doktoren.html
p2
Vdoktoren.
p3
sV2010/12/11/03-saft.html
p4
Vsaft.
p5
sV2010/11/02/02-bobbycar1.html
p6
Vbobbycar1.
p7
sV2010/11/04/01-bobbycar2.html
p8
Vbobbycar2.
p9
sV2010/11/10/01-puppentheater.html
p10
Vpuppentheater.
p11
s.