(dp1
V2010/10/02/01-gehen.html
p2
Vgehen. [update]
p3
sV2010/09/25/01-moritz-mischeintrag.html
p4
Vmoritz.
p5
sV2010/10/30/02-laufbeweis.html
p6
Vlaufbeweis.
p7
sV2010/10/18/01-furchtlos.html
p8
Vfurchtlos.
p9
s.