(dp1
V2010/09/23/01-doktoren.html
p2
Vdoktoren.
p3
sV2010/09/22/02-bild_test.html
p4
Vbildtest.
p5
sV2010/09/26/01-photos.html
p6
Vphotos.
p7
sV2010/10/18/02-laufradausflug.html
p8
Vlaufradausflug.
p9
sV2010/10/05/01-zug.html
p10
Vzug
p11
s.