(dp1
V2010/10/05/01-zug.html
p2
Vzug
p3
sV2010/10/18/02-laufradausflug.html
p4
Vlaufradausflug.
p5
sV2010/09/23/01-doktoren.html
p6
Vdoktoren.
p7
sV2010/09/26/01-photos.html
p8
Vphotos.
p9
sV2010/09/22/02-bild_test.html
p10
Vbildtest.
p11
sV2010/10/28/01-bilder.html
p12
Vbilder.
p13
sV2010/11/02/02-bobbycar1.html
p14
Vbobbycar1.
p15
s.