(dp1
V2010/11/06/01-zug.html
p2
Vzug.
p3
sV2010/10/05/01-zug.html
p4
Vzug
p5
sV2010/10/18/02-laufradausflug.html
p6
Vlaufradausflug.
p7
sV2010/09/23/01-doktoren.html
p8
Vdoktoren.
p9
sV2010/12/14/01-bilder.html
p10
Vbilder.
p11
sV2010/09/26/01-photos.html
p12
Vphotos.
p13
sV2010/09/22/02-bild_test.html
p14
Vbildtest.
p15
sV2010/10/28/01-bilder.html
p16
Vbilder.
p17
sV2010/11/02/02-bobbycar1.html
p18
Vbobbycar1.
p19
s.