(dp1
V2010/10/12/01-dialog.html
p2
Vdialog.
p3
sV2010/09/25/01-moritz-mischeintrag.html
p4
Vmoritz.
p5
sV2010/10/05/01-zug.html
p6
Vzug
p7
sV2010/10/02/02-reden.html
p8
Vreden.
p9
sV2010/10/18/02-laufradausflug.html
p10
Vlaufradausflug.
p11
sV2010/09/23/01-doktoren.html
p12
Vdoktoren.
p13
sV2010/09/26/01-photos.html
p14
Vphotos.
p15
sV2010/10/18/01-furchtlos.html
p16
Vfurchtlos.
p17
sV2010/09/22/02-bild_test.html
p18
Vbildtest.
p19
s.