(dp1
V2010/09/23/01-doktoren.html
p2
Vdoktoren.
p3
sV2010/09/22/02-bild_test.html
p4
Vbildtest.
p5
sV2010/10/02/02-reden.html
p6
Vreden.
p7
sV2010/09/26/01-photos.html
p8
Vphotos.
p9
sV2010/09/25/01-moritz-mischeintrag.html
p10
Vmoritz.
p11
s.