(dp1
V2010/10/12/01-dialog.html
p2
Vdialog.
p3
sV2010/09/25/01-moritz-mischeintrag.html
p4
Vmoritz.
p5
sV2010/10/05/01-zug.html
p6
Vzug
p7
sV2010/10/02/02-reden.html
p8
Vreden.
p9
sV2010/09/23/01-doktoren.html
p10
Vdoktoren.
p11
sV2010/09/26/01-photos.html
p12
Vphotos.
p13
sV2010/09/22/02-bild_test.html
p14
Vbildtest.
p15
s.