(dp1
V2010/09/25/01-moritz-mischeintrag.html
p2
Vmoritz.
p3
sV2010/10/05/01-zug.html
p4
Vzug
p5
sV2010/10/02/02-reden.html
p6
Vreden.
p7
sV2010/09/23/01-doktoren.html
p8
Vdoktoren.
p9
sV2010/09/26/01-photos.html
p10
Vphotos.
p11
sV2010/09/22/02-bild_test.html
p12
Vbildtest.
p13
s.