(dp1
V2014/02/25/01-marlene.html
p2
Vmarlene.
p3
sV2014/06/19/01-brei.html
p4
Vbrei.
p5
sV2014/07/03/01-namen.html
p6
Vnamen.
p7
sV2014/03/05/01-frage.html
p8
Vfrage.
p9
sV2014/03/02/01-bad.html
p10
Vbad.
p11
s.