(dp1
V2014/02/25/01-marlene.html
p2
Vmarlene.
p3
sV2014/03/02/01-bad.html
p4
Vbad.
p5
sV2014/07/03/01-namen.html
p6
Vnamen.
p7
sV2014/06/19/01-brei.html
p8
Vbrei.
p9
sV2014/10/14/01-standsitz.html
p10
Vstandsitz.
p11
sV2014/03/05/01-frage.html
p12
Vfrage.
p13
s.