(dp1
V2014/02/25/01-marlene.html
p2
Vmarlene.
p3
sV2014/03/02/01-bad.html
p4
Vbad.
p5
sV2014/07/03/01-namen.html
p6
Vnamen.
p7
sV2014/11/11/01-morgen.html
p8
Vmorgen.
p9
sV2014/06/19/01-brei.html
p10
Vbrei.
p11
sV2014/10/14/01-standsitz.html
p12
Vstandsitz.
p13
sV2015/01/07/01-2015.html
p14
V2015.
p15
sV2015/02/26/01-schritt.html
p16
Vschritt.
p17
sV2014/03/05/01-frage.html
p18
Vfrage.
p19
s.