(dp1
V2010/10/02/01-gehen.html
p2
Vgehen.
p3
sV2010/10/02/02-reden.html
p4
Vreden.
p5
sV2010/09/30/01-zahn.html
p6
Vzahn.
p7
sV2010/09/26/01-photos.html
p8
Vphotos.
p9
sV2010/09/25/01-moritz-mischeintrag.html
p10
Vmoritz.
p11
s.