(dp1
V2010/10/02/01-gehen.html
p2
Vgehen. [update]
p3
sV2010/09/30/01-zahn.html
p4
Vzahn.
p5
sV2010/10/02/02-reden.html
p6
Vreden.
p7
sV2010/09/26/01-photos.html
p8
Vphotos.
p9
sV2010/09/25/01-moritz-mischeintrag.html
p10
Vmoritz.
p11
s.