(dp1
V2010/09/25/01-moritz-mischeintrag.html
p2
Vmoritz.
p3
sV2010/10/18/01-furchtlos.html
p4
Vfurchtlos.
p5
sV2010/10/02/02-reden.html
p6
Vreden.
p7
sV2010/09/26/01-photos.html
p8
Vphotos.
p9
sV2010/10/30/02-laufbeweis.html
p10
Vlaufbeweis.
p11
sV2010/10/02/01-gehen.html
p12
Vgehen. [update]
p13
sV2010/09/30/01-zahn.html
p14
Vzahn.
p15
sV2010/10/28/01-bilder.html
p16
Vbilder.
p17
sV2010/10/30/01-stillen.html
p18
Vstillen.
p19
s.