(dp1
V2014/06/19/01-brei.html
p2
Vbrei.
p3
sV2016/10/06/01-heirat.html
p4
Vheirat.
p5
sV2016/01/28/01-washabeichgetan.html
p6
Vwashabeichgetan.
p7
sV2010/10/30/01-stillen.html
p8
Vstillen.
p9
sV2010/09/30/01-zahn.html
p10
Vzahn.
p11
s.