(dp1
V2010/11/27/01-bobbycar2.html
p2
Vbobbycar2.
p3
sV2014/03/03/01-verschwoerung.html
p4
Vverschwoerung.
p5
sV2010/11/04/01-bobbycar2.html
p6
Vbobbycar2.
p7
sV2011/02/26/01-google.html
p8
Vgoogle.
p9
sV2010/11/14/01-martin.html
p10
Vmartin.
p11
sV2013/08/12/01-spielplatz.html
p12
Vspielplatz.
p13
sV2013/09/20/01-herbst.html
p14
Vherbst.
p15
sV2010/11/10/01-puppentheater.html
p16
Vpuppentheater.
p17
s.