(dp1
V2010/11/27/01-bobbycar2.html
p2
Vbobbycar2.
p3
sV2010/11/04/01-bobbycar2.html
p4
Vbobbycar2.
p5
sV2011/02/26/01-google.html
p6
Vgoogle.
p7
sV2010/11/14/01-martin.html
p8
Vmartin.
p9
sV2013/08/12/01-spielplatz.html
p10
Vspielplatz.
p11
sV2013/09/20/01-herbst.html
p12
Vherbst.
p13
sV2010/11/10/01-puppentheater.html
p14
Vpuppentheater.
p15
s.