(dp1
V2010/11/14/01-martin.html
p2
Vmartin.
p3
sV2010/11/27/01-bobbycar2.html
p4
Vbobbycar2.
p5
sV2010/11/04/01-bobbycar2.html
p6
Vbobbycar2.
p7
sV2010/11/10/01-puppentheater.html
p8
Vpuppentheater.
p9
s.